target datalayout = "e-m:e-p270:32:32-p271:32:32-p272:64:64-i64:64-i128:128-f80:128-n8:16:32:64-S128"
target triple = "x86_64-pc-linux-gnu"

%"class.datalog::rule_dependencies" = type { %class.obj_map, ptr, %class.ptr_vector, %class.expr_sparse_mark, %class.obj_hashtable.2 }
%class.obj_map = type { %class.core_hashtable }
%class.core_hashtable = type <{ ptr, i32, i32, i32, [4 x i8] }>
%class.ptr_vector = type { %class.vector }
%class.vector = type { ptr }
%class.expr_sparse_mark = type { %class.obj_hashtable }
%class.obj_hashtable = type { %class.core_hashtable.base.1, [4 x i8] }
%class.core_hashtable.base.1 = type <{ ptr, i32, i32, i32 }>
%class.obj_hashtable.2 = type { %class.core_hashtable.base.6, [4 x i8] }
%class.core_hashtable.base.6 = type <{ ptr, i32, i32, i32 }>
%"class.datalog::rule_set" = type { ptr, ptr, %class.ref_vector.82, %class.obj_map.85, %"class.datalog::rule_dependencies", %class.scoped_ptr.90, %class.obj_hashtable.2, %class.obj_map.91, %class.obj_map.91, %class.ref_vector.96, %class.ptr_vector.45 }
%class.ref_vector.82 = type { %class.ref_vector_core.83 }
%class.ref_vector_core.83 = type { %class.ref_manager_wrapper.84, %class.ptr_vector.45 }
%class.ref_manager_wrapper.84 = type { ptr }
%class.obj_map.85 = type { %class.core_hashtable.86 }
%class.core_hashtable.86 = type <{ ptr, i32, i32, i32, [4 x i8] }>
%class.scoped_ptr.90 = type { ptr }
%class.obj_map.91 = type { %class.core_hashtable.92 }
%class.core_hashtable.92 = type <{ ptr, i32, i32, i32, [4 x i8] }>
%class.ref_vector.96 = type { %class.ref_vector_core.97 }
%class.ref_vector_core.97 = type { %class.ref_manager_wrapper.98, %class.ptr_vector.99 }
%class.ref_manager_wrapper.98 = type { ptr }
%class.ptr_vector.99 = type { %class.vector.100 }
%class.vector.100 = type { ptr }
%class.ptr_vector.45 = type { %class.vector.46 }
%class.vector.46 = type { ptr }

@_ZN7datalog15rule_stratifierD1Ev = hidden unnamed_addr alias void (ptr), ptr @_ZN7datalog15rule_stratifierD2Ev

; Function Attrs: mustprogress uwtable
define linkonce_odr hidden void @_Z7deallocIN7datalog15rule_stratifierEEvPT_(ptr noundef %0) #4 comdat {
  %2 = alloca ptr, align 8
  store ptr %0, ptr %2, align 8, !tbaa !172
  %3 = load ptr, ptr %2, align 8, !tbaa !172
  %4 = icmp eq ptr %3, null
  br i1 %4, label %5, label %6

5:                                                ; preds = %1
  br label %9

6:                                                ; preds = %1
  %7 = load ptr, ptr %2, align 8, !tbaa !172
  call void @_ZN7datalog15rule_stratifierD1Ev(ptr noundef nonnull align 8 dereferenceable(120) %7) #3
  %8 = load ptr, ptr %2, align 8, !tbaa !172
  call void @_ZN6memory10deallocateEPv(ptr noundef %8)
  br label %9

9:                                                ; preds = %6, %5
  ret void
}

; Function Attrs: mustprogress nounwind uwtable
define linkonce_odr hidden noundef zeroext i1 @_ZNK10scoped_ptrIN7datalog15rule_stratifierEEcvbEv(ptr noundef nonnull align 8 dereferenceable(8) %0) #5 comdat align 2 {
  %2 = alloca ptr, align 8
  store ptr %0, ptr %2, align 8, !tbaa !170
  %3 = load ptr, ptr %2, align 8
  %4 = getelementptr inbounds nuw %class.scoped_ptr.90, ptr %3, i32 0, i32 0
  %5 = load ptr, ptr %4, align 8, !tbaa !173
  %6 = icmp ne ptr %5, null
  ret i1 %6
}

; Function Attrs: mustprogress uwtable
define hidden void @_ZN7datalog17rule_dependencies5resetEv(ptr noundef nonnull align 8 dereferenceable(88) %0) #4 align 2 {
  %2 = alloca ptr, align 8
  store ptr %0, ptr %2, align 8, !tbaa !3
  %3 = load ptr, ptr %2, align 8
  %4 = getelementptr inbounds nuw %"class.datalog::rule_dependencies", ptr %3, i32 0, i32 0
  call void @_Z20reset_dealloc_valuesI9func_decl13obj_hashtableIS0_EEvR7obj_mapIT_PT0_E(ptr noundef nonnull align 8 dereferenceable(24) %4)
  ret void
}

; Function Attrs: mustprogress uwtable
define linkonce_odr hidden noundef nonnull align 8 dereferenceable(8) ptr @_ZN10scoped_ptrIN7datalog15rule_stratifierEEaSEPS1_(ptr noundef nonnull align 8 dereferenceable(8) %0, ptr noundef %1) #4 comdat align 2 {
  %3 = alloca ptr, align 8
  %4 = alloca ptr, align 8
  store ptr %0, ptr %3, align 8, !tbaa !170
  store ptr %1, ptr %4, align 8, !tbaa !172
  %5 = load ptr, ptr %3, align 8
  %6 = getelementptr inbounds nuw %class.scoped_ptr.90, ptr %5, i32 0, i32 0
  %7 = load ptr, ptr %6, align 8, !tbaa !173
  %8 = load ptr, ptr %4, align 8, !tbaa !172
  %9 = icmp ne ptr %7, %8
  br i1 %9, label %10, label %15

10:                                               ; preds = %2
  %11 = getelementptr inbounds nuw %class.scoped_ptr.90, ptr %5, i32 0, i32 0
  %12 = load ptr, ptr %11, align 8, !tbaa !173
  call void @_Z7deallocIN7datalog15rule_stratifierEEvPT_(ptr noundef %12)
  %13 = load ptr, ptr %4, align 8, !tbaa !172
  %14 = getelementptr inbounds nuw %class.scoped_ptr.90, ptr %5, i32 0, i32 0
  store ptr %13, ptr %14, align 8, !tbaa !173
  br label %15

15:                                               ; preds = %10, %2
  ret ptr %5
}

; Function Attrs: mustprogress uwtable
define linkonce_odr hidden noundef zeroext i1 @_ZNK7datalog8rule_set9is_closedEv(ptr noundef nonnull align 8 dereferenceable(248) %0) #4 comdat align 2 {
  %2 = alloca ptr, align 8
  store ptr %0, ptr %2, align 8, !tbaa !66
  %3 = load ptr, ptr %2, align 8
  %4 = getelementptr inbounds nuw %"class.datalog::rule_set", ptr %3, i32 0, i32 5
  %5 = call noundef zeroext i1 @_ZNK10scoped_ptrIN7datalog15rule_stratifierEEcvbEv(ptr noundef nonnull align 8 dereferenceable(8) %4)
  %6 = zext i1 %5 to i32
  %7 = icmp ne i32 %6, 0
  ret i1 %7
}

; Function Attrs: mustprogress uwtable
define hidden void @_ZN7datalog8rule_set6reopenEv(ptr noundef nonnull align 8 dereferenceable(248) %0) #4 align 2 {
  %2 = alloca ptr, align 8
  store ptr %0, ptr %2, align 8, !tbaa !66
  %3 = load ptr, ptr %2, align 8
  %4 = call noundef zeroext i1 @_ZNK7datalog8rule_set9is_closedEv(ptr noundef nonnull align 8 dereferenceable(248) %3)
  br i1 %4, label %5, label %9

5:                                                ; preds = %1
  %6 = getelementptr inbounds nuw %"class.datalog::rule_set", ptr %3, i32 0, i32 5
  %7 = call noundef nonnull align 8 dereferenceable(8) ptr @_ZN10scoped_ptrIN7datalog15rule_stratifierEEaSEPS1_(ptr noundef nonnull align 8 dereferenceable(8) %6, ptr noundef null)
  %8 = getelementptr inbounds nuw %"class.datalog::rule_set", ptr %3, i32 0, i32 4
  call void @_ZN7datalog17rule_dependencies5resetEv(ptr noundef nonnull align 8 dereferenceable(88) %8)
  br label %9

9:                                                ; preds = %5, %1
  ret void
}