; Function Attrs: mustprogress uwtable
define hidden void @_ZN7datalog8rule_set6reopenEv(ptr noundef nonnull align 8 dereferenceable(248) %0) local_unnamed_addr #3 align 2 {
  %2 = getelementptr inbounds nuw i8, ptr %0, i64 144
  %3 = load ptr, ptr %2, align 8, !tbaa !150
  %.not = icmp eq ptr %3, null
  br i1 %.not, label %5, label %_ZN10scoped_ptrIN7datalog15rule_stratifierEEaSEPS1_.exit

_ZN10scoped_ptrIN7datalog15rule_stratifierEEaSEPS1_.exit: ; preds = %1
  tail call void @_ZN7datalog15rule_stratifierD2Ev(ptr noundef nonnull align 8 dereferenceable(120) %3) #20
  tail call void @_ZN6memory10deallocateEPv(ptr noundef nonnull %3)
  store ptr null, ptr %2, align 8, !tbaa !150
  %4 = getelementptr inbounds nuw i8, ptr %0, i64 56
  tail call void @_Z20reset_dealloc_valuesI9func_decl13obj_hashtableIS0_EEvR7obj_mapIT_PT0_E(ptr noundef nonnull align 8 dereferenceable(88) %4)
  br label %5

5:                                                ; preds = %_ZN10scoped_ptrIN7datalog15rule_stratifierEEaSEPS1_.exit, %1
  ret void
}